target datalayout = "e-m:e-p270:32:32-p271:32:32-p272:64:64-i64:64-i128:128-f80:128-n8:16:32:64-S128"
target triple = "x86_64-pc-linux-gnu"

%struct.ForEachState = type { ptr, i32 }
%struct.PlannerInfo = type { i32, ptr, ptr, i32, ptr, ptr, ptr, ptr, i32, ptr, ptr, ptr, ptr, ptr, ptr, ptr, ptr, i32, ptr, ptr, ptr, ptr, ptr, i8, ptr, ptr, ptr, ptr, ptr, i32, ptr, ptr, ptr, ptr, ptr, ptr, ptr, i32, ptr, ptr, ptr, i32, ptr, ptr, ptr, ptr, ptr, ptr, [8 x ptr], [8 x ptr], ptr, ptr, ptr, ptr, ptr, ptr, ptr, double, double, double, i32, i8, i8, i8, i8, i8, i8, i8, i32, ptr, ptr, i32, i8, i8, i32, ptr, ptr, ptr, ptr, ptr, ptr, i8, ptr }
%struct.PlannerGlobal = type { i32, ptr, ptr, ptr, ptr, ptr, ptr, ptr, ptr, ptr, ptr, ptr, ptr, ptr, ptr, ptr, ptr, i32, i32, i32, i8, i8, i8, i8, i8, ptr }
%struct.List = type { i32, i32, i32, ptr, [0 x %union.ListCell] }
%union.ListCell = type { ptr }
%struct.PlanRowMark = type { i32, i32, i32, i32, i32, i32, i32, i32, i8 }
%struct.AppendRelInfo = type { i32, i32, i32, i32, i32, ptr, i32, ptr, i32 }

; Function Attrs: inlinehint nounwind uwtable
define internal i32 @list_length(ptr noundef %0) #2 {
  %2 = alloca ptr, align 8
  store ptr %0, ptr %2, align 8
  %3 = load ptr, ptr %2, align 8
  %4 = icmp ne ptr %3, null
  br i1 %4, label %5, label %9

5:                                                ; preds = %1
  %6 = load ptr, ptr %2, align 8
  %7 = getelementptr inbounds nuw %struct.List, ptr %6, i32 0, i32 1
  %8 = load i32, ptr %7, align 4
  br label %10

9:                                                ; preds = %1
  br label %10

10:                                               ; preds = %9, %5
  %11 = phi i32 [ %8, %5 ], [ 0, %9 ]
  ret i32 %11
}

; Function Attrs: nounwind uwtable
define dso_local ptr @set_plan_references(ptr noundef %0, ptr noundef %1) #0 {
  %3 = alloca ptr, align 8
  %4 = alloca ptr, align 8
  %5 = alloca ptr, align 8
  %6 = alloca ptr, align 8
  %7 = alloca i32, align 4
  %8 = alloca ptr, align 8
  %9 = alloca %struct.ForEachState, align 8
  %10 = alloca ptr, align 8
  %11 = alloca ptr, align 8
  %12 = alloca %struct.ForEachState, align 8
  %13 = alloca ptr, align 8
  %14 = alloca %struct.ForEachState, align 8
  %15 = alloca i32, align 4
  store ptr %0, ptr %3, align 8
  store ptr %1, ptr %4, align 8
  call void @llvm.lifetime.start.p0(i64 8, ptr %5) #8
  call void @llvm.lifetime.start.p0(i64 8, ptr %6) #8
  %16 = load ptr, ptr %3, align 8
  %17 = getelementptr inbounds nuw %struct.PlannerInfo, ptr %16, i32 0, i32 2
  %18 = load ptr, ptr %17, align 8
  store ptr %18, ptr %6, align 8
  call void @llvm.lifetime.start.p0(i64 4, ptr %7) #8
  %19 = load ptr, ptr %6, align 8
  %20 = getelementptr inbounds nuw %struct.PlannerGlobal, ptr %19, i32 0, i32 6
  %21 = load ptr, ptr %20, align 8
  %22 = call i32 @list_length(ptr noundef %21)
  store i32 %22, ptr %7, align 4
  call void @llvm.lifetime.start.p0(i64 8, ptr %8) #8
  %23 = load ptr, ptr %3, align 8
  call void @add_rtes_to_flat_rtable(ptr noundef %23, i1 noundef zeroext false)
  call void @llvm.lifetime.start.p0(i64 16, ptr %9) #8
  %24 = getelementptr inbounds nuw %struct.ForEachState, ptr %9, i32 0, i32 0
  %25 = load ptr, ptr %3, align 8
  %26 = getelementptr inbounds nuw %struct.PlannerInfo, ptr %25, i32 0, i32 34
  %27 = load ptr, ptr %26, align 8
  store ptr %27, ptr %24, align 8
  %28 = getelementptr inbounds nuw %struct.ForEachState, ptr %9, i32 0, i32 1
  store i32 0, ptr %28, align 8
  %29 = getelementptr i8, ptr %9, i64 12
  call void @llvm.memset.p0.i64(ptr align 4 %29, i8 0, i64 4, i1 false)
  br label %30

30:                                               ; preds = %79, %2
  %31 = getelementptr inbounds nuw %struct.ForEachState, ptr %9, i32 0, i32 0
  %32 = load ptr, ptr %31, align 8
  %33 = icmp ne ptr %32, null
  br i1 %33, label %34, label %51

34:                                               ; preds = %30
  %35 = getelementptr inbounds nuw %struct.ForEachState, ptr %9, i32 0, i32 1
  %36 = load i32, ptr %35, align 8
  %37 = getelementptr inbounds nuw %struct.ForEachState, ptr %9, i32 0, i32 0
  %38 = load ptr, ptr %37, align 8
  %39 = getelementptr inbounds nuw %struct.List, ptr %38, i32 0, i32 1
  %40 = load i32, ptr %39, align 4
  %41 = icmp slt i32 %36, %40
  br i1 %41, label %42, label %51

42:                                               ; preds = %34
  %43 = getelementptr inbounds nuw %struct.ForEachState, ptr %9, i32 0, i32 0
  %44 = load ptr, ptr %43, align 8
  %45 = getelementptr inbounds nuw %struct.List, ptr %44, i32 0, i32 3
  %46 = load ptr, ptr %45, align 8
  %47 = getelementptr inbounds nuw %struct.ForEachState, ptr %9, i32 0, i32 1
  %48 = load i32, ptr %47, align 8
  %49 = sext i32 %48 to i64
  %50 = getelementptr inbounds %union.ListCell, ptr %46, i64 %49
  store ptr %50, ptr %8, align 8
  br label %52

51:                                               ; preds = %34, %30
  store ptr null, ptr %8, align 8
  br label %52

52:                                               ; preds = %51, %42
  %53 = phi i32 [ 1, %42 ], [ 0, %51 ]
  %54 = icmp ne i32 %53, 0
  br i1 %54, label %56, label %55

55:                                               ; preds = %52
  call void @llvm.lifetime.end.p0(i64 16, ptr %9) #8
  br label %83

56:                                               ; preds = %52
  call void @llvm.lifetime.start.p0(i64 8, ptr %10) #8
  %57 = load ptr, ptr %8, align 8
  %58 = load ptr, ptr %57, align 8
  store ptr %58, ptr %10, align 8
  call void @llvm.lifetime.start.p0(i64 8, ptr %11) #8
  %59 = call ptr @palloc(i64 noundef 36)
  store ptr %59, ptr %11, align 8
  %60 = load ptr, ptr %11, align 8
  %61 = load ptr, ptr %10, align 8
  call void @llvm.memcpy.p0.p0.i64(ptr align 4 %60, ptr align 4 %61, i64 36, i1 false)
  %62 = load i32, ptr %7, align 4
  %63 = load ptr, ptr %11, align 8
  %64 = getelementptr inbounds nuw %struct.PlanRowMark, ptr %63, i32 0, i32 1
  %65 = load i32, ptr %64, align 4
  %66 = add i32 %65, %62
  store i32 %66, ptr %64, align 4
  %67 = load i32, ptr %7, align 4
  %68 = load ptr, ptr %11, align 8
  %69 = getelementptr inbounds nuw %struct.PlanRowMark, ptr %68, i32 0, i32 2
  %70 = load i32, ptr %69, align 4
  %71 = add i32 %70, %67
  store i32 %71, ptr %69, align 4
  %72 = load ptr, ptr %6, align 8
  %73 = getelementptr inbounds nuw %struct.PlannerGlobal, ptr %72, i32 0, i32 10
  %74 = load ptr, ptr %73, align 8
  %75 = load ptr, ptr %11, align 8
  %76 = call ptr @lappend(ptr noundef %74, ptr noundef %75)
  %77 = load ptr, ptr %6, align 8
  %78 = getelementptr inbounds nuw %struct.PlannerGlobal, ptr %77, i32 0, i32 10
  store ptr %76, ptr %78, align 8
  call void @llvm.lifetime.end.p0(i64 8, ptr %11) #8
  call void @llvm.lifetime.end.p0(i64 8, ptr %10) #8
  br label %79

79:                                               ; preds = %56
  %80 = getelementptr inbounds nuw %struct.ForEachState, ptr %9, i32 0, i32 1
  %81 = load i32, ptr %80, align 8
  %82 = add i32 %81, 1
  store i32 %82, ptr %80, align 8
  br label %30, !llvm.loop !4

83:                                               ; preds = %55
  call void @llvm.lifetime.start.p0(i64 16, ptr %12) #8
  %84 = getelementptr inbounds nuw %struct.ForEachState, ptr %12, i32 0, i32 0
  %85 = load ptr, ptr %3, align 8
  %86 = getelementptr inbounds nuw %struct.PlannerInfo, ptr %85, i32 0, i32 32
  %87 = load ptr, ptr %86, align 8
  store ptr %87, ptr %84, align 8
  %88 = getelementptr inbounds nuw %struct.ForEachState, ptr %12, i32 0, i32 1
  store i32 0, ptr %88, align 8
  %89 = getelementptr i8, ptr %12, i64 12
  call void @llvm.memset.p0.i64(ptr align 4 %89, i8 0, i64 4, i1 false)
  br label %90

90:                                               ; preds = %138, %83
  %91 = getelementptr inbounds nuw %struct.ForEachState, ptr %12, i32 0, i32 0
  %92 = load ptr, ptr %91, align 8
  %93 = icmp ne ptr %92, null
  br i1 %93, label %94, label %111

94:                                               ; preds = %90
  %95 = getelementptr inbounds nuw %struct.ForEachState, ptr %12, i32 0, i32 1
  %96 = load i32, ptr %95, align 8
  %97 = getelementptr inbounds nuw %struct.ForEachState, ptr %12, i32 0, i32 0
  %98 = load ptr, ptr %97, align 8
  %99 = getelementptr inbounds nuw %struct.List, ptr %98, i32 0, i32 1
  %100 = load i32, ptr %99, align 4
  %101 = icmp slt i32 %96, %100
  br i1 %101, label %102, label %111

102:                                              ; preds = %94
  %103 = getelementptr inbounds nuw %struct.ForEachState, ptr %12, i32 0, i32 0
  %104 = load ptr, ptr %103, align 8
  %105 = getelementptr inbounds nuw %struct.List, ptr %104, i32 0, i32 3
  %106 = load ptr, ptr %105, align 8
  %107 = getelementptr inbounds nuw %struct.ForEachState, ptr %12, i32 0, i32 1
  %108 = load i32, ptr %107, align 8
  %109 = sext i32 %108 to i64
  %110 = getelementptr inbounds %union.ListCell, ptr %106, i64 %109
  store ptr %110, ptr %8, align 8
  br label %112

111:                                              ; preds = %94, %90
  store ptr null, ptr %8, align 8
  br label %112

112:                                              ; preds = %111, %102
  %113 = phi i32 [ 1, %102 ], [ 0, %111 ]
  %114 = icmp ne i32 %113, 0
  br i1 %114, label %116, label %115

115:                                              ; preds = %112
  call void @llvm.lifetime.end.p0(i64 16, ptr %12) #8
  br label %142

116:                                              ; preds = %112
  call void @llvm.lifetime.start.p0(i64 8, ptr %13) #8
  %117 = load ptr, ptr %8, align 8
  %118 = load ptr, ptr %117, align 8
  store ptr %118, ptr %13, align 8
  %119 = load i32, ptr %7, align 4
  %120 = load ptr, ptr %13, align 8
  %121 = getelementptr inbounds nuw %struct.AppendRelInfo, ptr %120, i32 0, i32 1
  %122 = load i32, ptr %121, align 4
  %123 = add i32 %122, %119
  store i32 %123, ptr %121, align 4
  %124 = load i32, ptr %7, align 4
  %125 = load ptr, ptr %13, align 8
  %126 = getelementptr inbounds nuw %struct.AppendRelInfo, ptr %125, i32 0, i32 2
  %127 = load i32, ptr %126, align 8
  %128 = add i32 %127, %124
  store i32 %128, ptr %126, align 8
  %129 = load ptr, ptr %13, align 8
  %130 = getelementptr inbounds nuw %struct.AppendRelInfo, ptr %129, i32 0, i32 5
  store ptr null, ptr %130, align 8
  %131 = load ptr, ptr %6, align 8
  %132 = getelementptr inbounds nuw %struct.PlannerGlobal, ptr %131, i32 0, i32 12
  %133 = load ptr, ptr %132, align 8
  %134 = load ptr, ptr %13, align 8
  %135 = call ptr @lappend(ptr noundef %133, ptr noundef %134)
  %136 = load ptr, ptr %6, align 8
  %137 = getelementptr inbounds nuw %struct.PlannerGlobal, ptr %136, i32 0, i32 12
  store ptr %135, ptr %137, align 8
  call void @llvm.lifetime.end.p0(i64 8, ptr %13) #8
  br label %138

138:                                              ; preds = %116
  %139 = getelementptr inbounds nuw %struct.ForEachState, ptr %12, i32 0, i32 1
  %140 = load i32, ptr %139, align 8
  %141 = add i32 %140, 1
  store i32 %141, ptr %139, align 8
  br label %90, !llvm.loop !6

142:                                              ; preds = %115
  %143 = load ptr, ptr %3, align 8
  %144 = getelementptr inbounds nuw %struct.PlannerInfo, ptr %143, i32 0, i32 65
  %145 = load i8, ptr %144, align 8, !range !7, !noundef !8
  %146 = trunc i8 %145 to i1
  br i1 %146, label %147, label %166

147:                                              ; preds = %142
  %148 = load ptr, ptr %6, align 8
  %149 = getelementptr inbounds nuw %struct.PlannerGlobal, ptr %148, i32 0, i32 2
  %150 = load ptr, ptr %149, align 8
  %151 = call i32 @list_length(ptr noundef %150)
  %152 = sext i32 %151 to i64
  %153 = mul i64 %152, 1
  %154 = call ptr @palloc0(i64 noundef %153)
  %155 = load ptr, ptr %3, align 8
  %156 = getelementptr inbounds nuw %struct.PlannerInfo, ptr %155, i32 0, i32 78
  store ptr %154, ptr %156, align 8
  %157 = load ptr, ptr %6, align 8
  %158 = getelementptr inbounds nuw %struct.PlannerGlobal, ptr %157, i32 0, i32 2
  %159 = load ptr, ptr %158, align 8
  %160 = call i32 @list_length(ptr noundef %159)
  %161 = sext i32 %160 to i64
  %162 = mul i64 %161, 1
  %163 = call ptr @palloc0(i64 noundef %162)
  %164 = load ptr, ptr %3, align 8
  %165 = getelementptr inbounds nuw %struct.PlannerInfo, ptr %164, i32 0, i32 79
  store ptr %163, ptr %165, align 8
  br label %166

166:                                              ; preds = %147, %142
  %167 = load ptr, ptr %3, align 8
  %168 = load ptr, ptr %4, align 8
  %169 = load i32, ptr %7, align 4
  %170 = call ptr @set_plan_refs(ptr noundef %167, ptr noundef %168, i32 noundef %169)
  store ptr %170, ptr %5, align 8
  %171 = load ptr, ptr %3, align 8
  %172 = getelementptr inbounds nuw %struct.PlannerInfo, ptr %171, i32 0, i32 65
  %173 = load i8, ptr %172, align 8, !range !7, !noundef !8
  %174 = trunc i8 %173 to i1
  br i1 %174, label %175, label %236

175:                                              ; preds = %166
  call void @llvm.lifetime.start.p0(i64 16, ptr %14) #8
  %176 = getelementptr inbounds nuw %struct.ForEachState, ptr %14, i32 0, i32 0
  %177 = load ptr, ptr %6, align 8
  %178 = getelementptr inbounds nuw %struct.PlannerGlobal, ptr %177, i32 0, i32 2
  %179 = load ptr, ptr %178, align 8
  store ptr %179, ptr %176, align 8
  %180 = getelementptr inbounds nuw %struct.ForEachState, ptr %14, i32 0, i32 1
  store i32 0, ptr %180, align 8
  %181 = getelementptr i8, ptr %14, i64 12
  call void @llvm.memset.p0.i64(ptr align 4 %181, i8 0, i64 4, i1 false)
  br label %182

182:                                              ; preds = %231, %175
  %183 = getelementptr inbounds nuw %struct.ForEachState, ptr %14, i32 0, i32 0
  %184 = load ptr, ptr %183, align 8
  %185 = icmp ne ptr %184, null
  br i1 %185, label %186, label %203

186:                                              ; preds = %182
  %187 = getelementptr inbounds nuw %struct.ForEachState, ptr %14, i32 0, i32 1
  %188 = load i32, ptr %187, align 8
  %189 = getelementptr inbounds nuw %struct.ForEachState, ptr %14, i32 0, i32 0
  %190 = load ptr, ptr %189, align 8
  %191 = getelementptr inbounds nuw %struct.List, ptr %190, i32 0, i32 1
  %192 = load i32, ptr %191, align 4
  %193 = icmp slt i32 %188, %192
  br i1 %193, label %194, label %203

194:                                              ; preds = %186
  %195 = getelementptr inbounds nuw %struct.ForEachState, ptr %14, i32 0, i32 0
  %196 = load ptr, ptr %195, align 8
  %197 = getelementptr inbounds nuw %struct.List, ptr %196, i32 0, i32 3
  %198 = load ptr, ptr %197, align 8
  %199 = getelementptr inbounds nuw %struct.ForEachState, ptr %14, i32 0, i32 1
  %200 = load i32, ptr %199, align 8
  %201 = sext i32 %200 to i64
  %202 = getelementptr inbounds %union.ListCell, ptr %198, i64 %201
  store ptr %202, ptr %8, align 8
  br label %204

203:                                              ; preds = %186, %182
  store ptr null, ptr %8, align 8
  br label %204

204:                                              ; preds = %203, %194
  %205 = phi i32 [ 1, %194 ], [ 0, %203 ]
  %206 = icmp ne i32 %205, 0
  br i1 %206, label %208, label %207

207:                                              ; preds = %204
  call void @llvm.lifetime.end.p0(i64 16, ptr %14) #8
  br label %235

208:                                              ; preds = %204
  call void @llvm.lifetime.start.p0(i64 4, ptr %15) #8
  %209 = getelementptr inbounds nuw %struct.ForEachState, ptr %14, i32 0, i32 1
  %210 = load i32, ptr %209, align 8
  store i32 %210, ptr %15, align 4
  %211 = load ptr, ptr %3, align 8
  %212 = getelementptr inbounds nuw %struct.PlannerInfo, ptr %211, i32 0, i32 78
  %213 = load ptr, ptr %212, align 8
  %214 = load i32, ptr %15, align 4
  %215 = sext i32 %214 to i64
  %216 = getelementptr inbounds i8, ptr %213, i64 %215
  %217 = load i8, ptr %216, align 1, !range !7, !noundef !8
  %218 = trunc i8 %217 to i1
  br i1 %218, label %219, label %230

219:                                              ; preds = %208
  %220 = load ptr, ptr %3, align 8
  %221 = getelementptr inbounds nuw %struct.PlannerInfo, ptr %220, i32 0, i32 79
  %222 = load ptr, ptr %221, align 8
  %223 = load i32, ptr %15, align 4
  %224 = sext i32 %223 to i64
  %225 = getelementptr inbounds i8, ptr %222, i64 %224
  %226 = load i8, ptr %225, align 1, !range !7, !noundef !8
  %227 = trunc i8 %226 to i1
  br i1 %227, label %230, label %228

228:                                              ; preds = %219
  %229 = load ptr, ptr %8, align 8
  store ptr null, ptr %229, align 8
  br label %230

230:                                              ; preds = %228, %219, %208
  call void @llvm.lifetime.end.p0(i64 4, ptr %15) #8
  br label %231

231:                                              ; preds = %230
  %232 = getelementptr inbounds nuw %struct.ForEachState, ptr %14, i32 0, i32 1
  %233 = load i32, ptr %232, align 8
  %234 = add i32 %233, 1
  store i32 %234, ptr %232, align 8
  br label %182, !llvm.loop !9

235:                                              ; preds = %207
  br label %236

236:                                              ; preds = %235, %166
  %237 = load ptr, ptr %5, align 8
  call void @llvm.lifetime.end.p0(i64 8, ptr %8) #8
  call void @llvm.lifetime.end.p0(i64 4, ptr %7) #8
  call void @llvm.lifetime.end.p0(i64 8, ptr %6) #8
  call void @llvm.lifetime.end.p0(i64 8, ptr %5) #8
  ret ptr %237
}