; Function Attrs: nounwind uwtable
define dso_local ptr @set_plan_references(ptr noundef %0, ptr noundef %1) local_unnamed_addr #0 {
  %3 = getelementptr inbounds nuw i8, ptr %0, i64 16
  %4 = load ptr, ptr %3, align 8
  %5 = getelementptr inbounds nuw i8, ptr %4, i64 48
  %6 = load ptr, ptr %5, align 8
  %.not.i = icmp eq ptr %6, null
  br i1 %.not.i, label %list_length.exit, label %7

7:                                                ; preds = %2
  %8 = getelementptr inbounds nuw i8, ptr %6, i64 4
  %9 = load i32, ptr %8, align 4
  br label %list_length.exit

list_length.exit:                                 ; preds = %2, %7
  %10 = phi i32 [ %9, %7 ], [ 0, %2 ]
  tail call fastcc void @add_rtes_to_flat_rtable(ptr noundef nonnull %0, i1 noundef zeroext false)
  %11 = getelementptr inbounds nuw i8, ptr %0, i64 272
  %12 = load ptr, ptr %11, align 8
  %13 = getelementptr inbounds nuw i8, ptr %12, i64 4
  %.not = icmp eq ptr %12, null
  br i1 %.not, label %._crit_edge, label %.lr.ph

.lr.ph:                                           ; preds = %list_length.exit
  %14 = getelementptr inbounds nuw i8, ptr %12, i64 16
  %15 = getelementptr inbounds nuw i8, ptr %4, i64 80
  %16 = load i32, ptr %13, align 4
  %17 = icmp sgt i32 %16, 0
  br i1 %17, label %.lr.ph82, label %._crit_edge

._crit_edge:                                      ; preds = %.lr.ph82, %.lr.ph, %list_length.exit
  %18 = getelementptr inbounds nuw i8, ptr %0, i64 256
  %19 = load ptr, ptr %18, align 8
  %20 = getelementptr inbounds nuw i8, ptr %19, i64 4
  %.not61 = icmp eq ptr %19, null
  br i1 %.not61, label %._crit_edge86, label %.lr.ph85

.lr.ph85:                                         ; preds = %._crit_edge
  %21 = getelementptr inbounds nuw i8, ptr %19, i64 16
  %22 = getelementptr inbounds nuw i8, ptr %4, i64 96
  %23 = load i32, ptr %20, align 4
  %24 = icmp sgt i32 %23, 0
  br i1 %24, label %.lr.ph89, label %._crit_edge86

.lr.ph82:                                         ; preds = %.lr.ph, %.lr.ph82
  %indvars.iv = phi i64 [ %indvars.iv.next, %.lr.ph82 ], [ 0, %.lr.ph ]
  %25 = load ptr, ptr %14, align 8
  %26 = getelementptr inbounds nuw %union.ListCell, ptr %25, i64 %indvars.iv
  %27 = load ptr, ptr %26, align 8
  %28 = tail call ptr @palloc(i64 noundef 36) #8
  tail call void @llvm.memcpy.p0.p0.i64(ptr noundef nonnull align 4 dereferenceable(36) %28, ptr noundef nonnull align 4 dereferenceable(36) %27, i64 36, i1 false)
  %29 = getelementptr inbounds nuw i8, ptr %28, i64 4
  %30 = load i32, ptr %29, align 4
  %31 = add i32 %30, %10
  store i32 %31, ptr %29, align 4
  %32 = getelementptr inbounds nuw i8, ptr %28, i64 8
  %33 = load i32, ptr %32, align 4
  %34 = add i32 %33, %10
  store i32 %34, ptr %32, align 4
  %35 = load ptr, ptr %15, align 8
  %36 = tail call ptr @lappend(ptr noundef %35, ptr noundef nonnull %28) #8
  store ptr %36, ptr %15, align 8
  %indvars.iv.next = add nuw nsw i64 %indvars.iv, 1
  %37 = load i32, ptr %13, align 4
  %38 = sext i32 %37 to i64
  %39 = icmp slt i64 %indvars.iv.next, %38
  br i1 %39, label %.lr.ph82, label %._crit_edge

._crit_edge86:                                    ; preds = %.lr.ph89, %.lr.ph85, %._crit_edge
  %40 = getelementptr inbounds nuw i8, ptr %0, i64 600
  %41 = load i8, ptr %40, align 8, !range !4, !noundef !5
  %42 = trunc nuw i8 %41 to i1
  br i1 %42, label %58, label %76

.lr.ph89:                                         ; preds = %.lr.ph85, %.lr.ph89
  %indvars.iv97 = phi i64 [ %indvars.iv.next98, %.lr.ph89 ], [ 0, %.lr.ph85 ]
  %43 = load ptr, ptr %21, align 8
  %44 = getelementptr inbounds nuw %union.ListCell, ptr %43, i64 %indvars.iv97
  %45 = load ptr, ptr %44, align 8
  %46 = getelementptr inbounds nuw i8, ptr %45, i64 4
  %47 = load i32, ptr %46, align 4
  %48 = add i32 %47, %10
  store i32 %48, ptr %46, align 4
  %49 = getelementptr inbounds nuw i8, ptr %45, i64 8
  %50 = load i32, ptr %49, align 8
  %51 = add i32 %50, %10
  store i32 %51, ptr %49, align 8
  %52 = getelementptr inbounds nuw i8, ptr %45, i64 24
  store ptr null, ptr %52, align 8
  %53 = load ptr, ptr %22, align 8
  %54 = tail call ptr @lappend(ptr noundef %53, ptr noundef %45) #8
  store ptr %54, ptr %22, align 8
  %indvars.iv.next98 = add nuw nsw i64 %indvars.iv97, 1
  %55 = load i32, ptr %20, align 4
  %56 = sext i32 %55 to i64
  %57 = icmp slt i64 %indvars.iv.next98, %56
  br i1 %57, label %.lr.ph89, label %._crit_edge86

58:                                               ; preds = %._crit_edge86
  %59 = getelementptr inbounds nuw i8, ptr %4, i64 16
  %60 = load ptr, ptr %59, align 8
  %.not.i65 = icmp eq ptr %60, null
  br i1 %.not.i65, label %list_length.exit66, label %61

61:                                               ; preds = %58
  %62 = getelementptr inbounds nuw i8, ptr %60, i64 4
  %63 = load i32, ptr %62, align 4
  %64 = sext i32 %63 to i64
  br label %list_length.exit66

list_length.exit66:                               ; preds = %58, %61
  %65 = phi i64 [ %64, %61 ], [ 0, %58 ]
  %66 = tail call ptr @palloc0(i64 noundef %65) #8
  %67 = getelementptr inbounds nuw i8, ptr %0, i64 664
  store ptr %66, ptr %67, align 8
  %68 = load ptr, ptr %59, align 8
  %.not.i67 = icmp eq ptr %68, null
  br i1 %.not.i67, label %list_length.exit68, label %69

69:                                               ; preds = %list_length.exit66
  %70 = getelementptr inbounds nuw i8, ptr %68, i64 4
  %71 = load i32, ptr %70, align 4
  %72 = sext i32 %71 to i64
  br label %list_length.exit68

list_length.exit68:                               ; preds = %list_length.exit66, %69
  %73 = phi i64 [ %72, %69 ], [ 0, %list_length.exit66 ]
  %74 = tail call ptr @palloc0(i64 noundef %73) #8
  %75 = getelementptr inbounds nuw i8, ptr %0, i64 672
  store ptr %74, ptr %75, align 8
  br label %76

76:                                               ; preds = %list_length.exit68, %._crit_edge86
  %77 = tail call fastcc ptr @set_plan_refs(ptr noundef nonnull %0, ptr noundef %1, i32 noundef %10)
  %78 = load i8, ptr %40, align 8, !range !4, !noundef !5
  %79 = trunc nuw i8 %78 to i1
  br i1 %79, label %80, label %.thread76

80:                                               ; preds = %76
  %81 = getelementptr inbounds nuw i8, ptr %4, i64 16
  %82 = load ptr, ptr %81, align 8
  %83 = getelementptr inbounds nuw i8, ptr %82, i64 4
  %.not63 = icmp eq ptr %82, null
  br i1 %.not63, label %.thread76, label %.lr.ph92

.lr.ph92:                                         ; preds = %80
  %84 = getelementptr inbounds nuw i8, ptr %82, i64 16
  %85 = getelementptr inbounds nuw i8, ptr %0, i64 664
  %86 = getelementptr inbounds nuw i8, ptr %0, i64 672
  %87 = load i32, ptr %83, align 4
  %88 = icmp sgt i32 %87, 0
  br i1 %88, label %.lr.ph95, label %.thread76

.lr.ph95:                                         ; preds = %.lr.ph92, %102
  %89 = phi i32 [ %103, %102 ], [ %87, %.lr.ph92 ]
  %indvars.iv100 = phi i64 [ %indvars.iv.next101, %102 ], [ 0, %.lr.ph92 ]
  %90 = load ptr, ptr %84, align 8
  %91 = getelementptr inbounds nuw %union.ListCell, ptr %90, i64 %indvars.iv100
  %92 = load ptr, ptr %85, align 8
  %93 = getelementptr inbounds nuw i8, ptr %92, i64 %indvars.iv100
  %94 = load i8, ptr %93, align 1, !range !4, !noundef !5
  %95 = trunc nuw i8 %94 to i1
  br i1 %95, label %96, label %102

96:                                               ; preds = %.lr.ph95
  %97 = load ptr, ptr %86, align 8
  %98 = getelementptr inbounds nuw i8, ptr %97, i64 %indvars.iv100
  %99 = load i8, ptr %98, align 1, !range !4, !noundef !5
  %100 = trunc nuw i8 %99 to i1
  br i1 %100, label %102, label %101

101:                                              ; preds = %96
  store ptr null, ptr %91, align 8
  %.pre = load i32, ptr %83, align 4
  br label %102

102:                                              ; preds = %101, %96, %.lr.ph95
  %103 = phi i32 [ %.pre, %101 ], [ %89, %96 ], [ %89, %.lr.ph95 ]
  %indvars.iv.next101 = add nuw nsw i64 %indvars.iv100, 1
  %104 = sext i32 %103 to i64
  %105 = icmp slt i64 %indvars.iv.next101, %104
  br i1 %105, label %.lr.ph95, label %.thread76

.thread76:                                        ; preds = %102, %80, %.lr.ph92, %76
  ret ptr %77
}